; Function Attrs: mustprogress uwtable
define dso_local void @_ZN19cmCPackIFWInstaller25printSkippedOptionWarningERKNSt7__cxx1112basic_stringIcSt11char_traitsIcESaIcEEES7_(ptr nocapture noundef nonnull readonly align 8 dereferenceable(1112) %0, ptr noundef nonnull align 8 dereferenceable(32) %1, ptr noundef nonnull align 8 dereferenceable(32) %2) local_unnamed_addr #3 align 2 personality ptr @__gxx_personality_v0 {
  %4 = alloca %"class.std::__cxx11::basic_ostringstream", align 8
  %5 = alloca %"class.std::__cxx11::basic_string", align 8
  call void @_ZNSt7__cxx1119basic_ostringstreamIcSt11char_traitsIcESaIcEEC1Ev(ptr noundef nonnull align 8 dereferenceable(112) %4)
  %6 = invoke noundef nonnull align 8 dereferenceable(8) ptr @_ZStlsISt11char_traitsIcEERSt13basic_ostreamIcT_ES5_PKc(ptr noundef nonnull align 8 dereferenceable(8) %4, ptr noundef nonnull @.str)
          to label %7 unwind label %25

7:                                                ; preds = %3
  %8 = invoke noundef nonnull align 8 dereferenceable(8) ptr @_ZStlsIcSt11char_traitsIcESaIcEERSt13basic_ostreamIT_T0_ES7_RKNSt7__cxx1112basic_stringIS4_S5_T1_EE(ptr noundef nonnull align 8 dereferenceable(8) %6, ptr noundef nonnull align 8 dereferenceable(32) %1)
          to label %9 unwind label %25

9:                                                ; preds = %7
  %10 = invoke noundef nonnull align 8 dereferenceable(8) ptr @_ZStlsISt11char_traitsIcEERSt13basic_ostreamIcT_ES5_PKc(ptr noundef nonnull align 8 dereferenceable(8) %8, ptr noundef nonnull @.str.1)
          to label %11 unwind label %25

11:                                               ; preds = %9
  %12 = invoke noundef nonnull align 8 dereferenceable(8) ptr @_ZStlsIcSt11char_traitsIcESaIcEERSt13basic_ostreamIT_T0_ES7_RKNSt7__cxx1112basic_stringIS4_S5_T1_EE(ptr noundef nonnull align 8 dereferenceable(8) %10, ptr noundef nonnull align 8 dereferenceable(32) %2)
          to label %13 unwind label %25

13:                                               ; preds = %11
  %14 = invoke noundef nonnull align 8 dereferenceable(8) ptr @_ZStlsISt11char_traitsIcEERSt13basic_ostreamIcT_ES5_PKc(ptr noundef nonnull align 8 dereferenceable(8) %12, ptr noundef nonnull @.str.2)
          to label %15 unwind label %25

15:                                               ; preds = %13
  %16 = invoke noundef nonnull align 8 dereferenceable(8) ptr @_ZNSolsEPFRSoS_E(ptr noundef nonnull align 8 dereferenceable(8) %14, ptr noundef nonnull @_ZSt4endlIcSt11char_traitsIcEERSt13basic_ostreamIT_T0_ES6_)
          to label %17 unwind label %25

17:                                               ; preds = %15
  %18 = load ptr, ptr %0, align 8
  %.not = icmp eq ptr %18, null
  br i1 %.not, label %29, label %19

19:                                               ; preds = %17
  %20 = getelementptr inbounds i8, ptr %18, i64 336
  %21 = load ptr, ptr %20, align 8
  invoke void @_ZNKSt7__cxx1119basic_ostringstreamIcSt11char_traitsIcESaIcEE3strEv(ptr dead_on_unwind nonnull writable sret(%"class.std::__cxx11::basic_string") align 8 %5, ptr noundef nonnull align 8 dereferenceable(112) %4)
          to label %22 unwind label %25

22:                                               ; preds = %19
  %23 = call noundef ptr @_ZNKSt7__cxx1112basic_stringIcSt11char_traitsIcESaIcEE5c_strEv(ptr noundef nonnull align 8 dereferenceable(32) %5) #16
  %24 = call i64 @strlen(ptr noundef nonnull dereferenceable(1) %23) #17
  invoke void @_ZN10cmCPackLog3LogEiPKciS1_m(ptr noundef nonnull align 8 dereferenceable(232) %21, i32 noundef 8, ptr noundef nonnull @.str.3, i32 noundef 32, ptr noundef %23, i64 noundef %24)
          to label %_ZN10cmCPackLog3LogEiPKciS1_.exit unwind label %27

_ZN10cmCPackLog3LogEiPKciS1_.exit:                ; preds = %22
  call void @_ZNSt7__cxx1112basic_stringIcSt11char_traitsIcESaIcEED1Ev(ptr noundef nonnull align 8 dereferenceable(32) %5) #16
  br label %29

25:                                               ; preds = %19, %15, %13, %11, %9, %7, %3
  %26 = landingpad { ptr, i32 }
          cleanup
  br label %30

27:                                               ; preds = %22
  %28 = landingpad { ptr, i32 }
          cleanup
  call void @_ZNSt7__cxx1112basic_stringIcSt11char_traitsIcESaIcEED1Ev(ptr noundef nonnull align 8 dereferenceable(32) %5) #16
  br label %30

29:                                               ; preds = %_ZN10cmCPackLog3LogEiPKciS1_.exit, %17
  call void @_ZNSt7__cxx1119basic_ostringstreamIcSt11char_traitsIcESaIcEED1Ev(ptr noundef nonnull align 8 dereferenceable(112) %4) #16
  ret void

30:                                               ; preds = %27, %25
  %.pn = phi { ptr, i32 } [ %28, %27 ], [ %26, %25 ]
  call void @_ZNSt7__cxx1119basic_ostringstreamIcSt11char_traitsIcESaIcEED1Ev(ptr noundef nonnull align 8 dereferenceable(112) %4) #16
  resume { ptr, i32 } %.pn
}